(dp1
F0
(dp2
F0
(dp3
F0
(dp4
sF1
(dp5
sF3
F0.060846560846599999
sF4
F0.029100529100500001
ssF1
(dp6
F1
F0.14814814814800001
sF2
F0.029100529100500001
ssF2
(dp7
F1
F0.0079365079365100004
sF2
F0.0079365079365100004
ssF3
(dp8
F0
F0.018518518518500001
sssF1
(dp9
F0
(dp10
F1
F0.27248677248699998
sF2
F0.074074074074099994
sF3
F0.018518518518500001
ssF1
(dp11
F0
F0.14550264550299999
sF1
F0.031746031745999999
sssF2
(dp12
F0
(dp13
F1
F0.047619047619000002
sF2
F0.0343915343915
sF3
F0.010582010582
ssF1
(dp14
F0
F0.010582010582
ssF2
(dp15
F0
F0.0079365079365100004
sssF3
(dp16
F0
(dp17
F0
F0.0343915343915
sF1
F0.010582010582
sss.